target datalayout = "e-m:e-p270:32:32-p271:32:32-p272:64:64-i64:64-i128:128-f80:128-n8:16:32:64-S128"
target triple = "x86_64-pc-linux-gnu"

%struct._lv_vector_draw_dsc_t = type { %struct._lv_vector_fill_dsc_t, %struct._lv_vector_stroke_dsc_t, %struct._lv_matrix_t, i32, %struct.lv_area_t }
%struct._lv_vector_fill_dsc_t = type { i32, %struct.lv_color32_t, i8, i32, %struct._lv_draw_image_dsc_t, %struct._lv_vector_gradient_t, %struct._lv_matrix_t }
%struct.lv_color32_t = type { i8, i8, i8, i8 }
%struct._lv_draw_image_dsc_t = type { %struct.lv_draw_dsc_base_t, ptr, %struct.lv_image_header_t, i32, i32, i32, i32, i32, %struct.lv_point_t, %struct.lv_color_t, i8, i8, i8, ptr, %struct.lv_area_t, i32, ptr }
%struct.lv_draw_dsc_base_t = type { ptr, i32, i32, i32, ptr, i64, ptr }
%struct.lv_image_header_t = type <{ i64, i32 }>
%struct.lv_point_t = type { i32, i32 }
%struct.lv_color_t = type { i8, i8, i8 }
%struct._lv_vector_gradient_t = type { i32, [2 x %struct.lv_gradient_stop_t], i16, float, float, float, float, float, float, float, i32 }
%struct.lv_gradient_stop_t = type { %struct.lv_color_t, i8, i8 }
%struct._lv_vector_stroke_dsc_t = type { i32, %struct.lv_color32_t, i8, float, %struct._lv_array_t, i32, i32, i16, %struct._lv_vector_gradient_t, %struct._lv_matrix_t }
%struct._lv_array_t = type { ptr, i32, i32, i32, i8 }
%struct._lv_matrix_t = type { [3 x [3 x float]] }
%struct.lv_area_t = type { i32, i32, i32, i32 }
%struct._lv_svg_render_obj = type { ptr, i32, ptr, %struct._lv_vector_draw_dsc_t, %struct._lv_matrix_t, ptr, ptr, ptr, ptr, ptr, ptr, ptr, ptr, ptr }
%struct._lv_vector_dsc_t = type { ptr, %struct._lv_vector_draw_dsc_t, %struct._lv_draw_vector_task_dsc_t }
%struct._lv_draw_vector_task_dsc_t = type { %struct.lv_draw_dsc_base_t, ptr }

; Function Attrs: nounwind uwtable
define internal void @_special_render(ptr noundef %0, ptr noundef %1) #0 {
  %3 = alloca ptr, align 8
  %4 = alloca ptr, align 8
  %5 = alloca ptr, align 8
  %6 = alloca ptr, align 8
  store ptr %0, ptr %3, align 8, !tbaa !3
  store ptr %1, ptr %4, align 8, !tbaa !3
  call void @llvm.lifetime.start.p0(i64 8, ptr %5) #8
  %7 = load ptr, ptr %3, align 8, !tbaa !3
  %8 = getelementptr inbounds nuw %struct._lv_svg_render_obj, ptr %7, i32 0, i32 3
  store ptr %8, ptr %5, align 8, !tbaa !3
  call void @llvm.lifetime.start.p0(i64 8, ptr %6) #8
  %9 = load ptr, ptr %4, align 8, !tbaa !3
  %10 = getelementptr inbounds nuw %struct._lv_vector_dsc_t, ptr %9, i32 0, i32 1
  store ptr %10, ptr %6, align 8, !tbaa !3
  %11 = load ptr, ptr %3, align 8, !tbaa !3
  %12 = getelementptr inbounds nuw %struct._lv_svg_render_obj, ptr %11, i32 0, i32 1
  %13 = load i32, ptr %12, align 8, !tbaa !36
  %14 = and i32 %13, 8
  %15 = icmp ne i32 %14, 0
  br i1 %15, label %16, label %27

16:                                               ; preds = %2
  %17 = load ptr, ptr %6, align 8, !tbaa !3
  %18 = getelementptr inbounds nuw %struct._lv_vector_draw_dsc_t, ptr %17, i32 0, i32 0
  %19 = load ptr, ptr %5, align 8, !tbaa !3
  %20 = getelementptr inbounds nuw %struct._lv_vector_draw_dsc_t, ptr %19, i32 0, i32 0
  %21 = call ptr @lv_memcpy(ptr noundef %18, ptr noundef %20, i64 noundef 248)
  %22 = load ptr, ptr %5, align 8, !tbaa !3
  %23 = getelementptr inbounds nuw %struct._lv_vector_draw_dsc_t, ptr %22, i32 0, i32 3
  %24 = load i32, ptr %23, align 4, !tbaa !88
  %25 = load ptr, ptr %6, align 8, !tbaa !3
  %26 = getelementptr inbounds nuw %struct._lv_vector_draw_dsc_t, ptr %25, i32 0, i32 3
  store i32 %24, ptr %26, align 4, !tbaa !88
  br label %27

27:                                               ; preds = %16, %2
  %28 = load ptr, ptr %3, align 8, !tbaa !3
  %29 = getelementptr inbounds nuw %struct._lv_svg_render_obj, ptr %28, i32 0, i32 1
  %30 = load i32, ptr %29, align 8, !tbaa !36
  %31 = and i32 %30, 32
  %32 = icmp ne i32 %31, 0
  br i1 %32, label %33, label %41

33:                                               ; preds = %27
  %34 = load ptr, ptr %5, align 8, !tbaa !3
  %35 = getelementptr inbounds nuw %struct._lv_vector_draw_dsc_t, ptr %34, i32 0, i32 0
  %36 = getelementptr inbounds nuw %struct._lv_vector_fill_dsc_t, ptr %35, i32 0, i32 2
  %37 = load i8, ptr %36, align 8, !tbaa !159
  %38 = load ptr, ptr %6, align 8, !tbaa !3
  %39 = getelementptr inbounds nuw %struct._lv_vector_draw_dsc_t, ptr %38, i32 0, i32 0
  %40 = getelementptr inbounds nuw %struct._lv_vector_fill_dsc_t, ptr %39, i32 0, i32 2
  store i8 %37, ptr %40, align 8, !tbaa !159
  br label %41

41:                                               ; preds = %33, %27
  %42 = load ptr, ptr %3, align 8, !tbaa !3
  %43 = getelementptr inbounds nuw %struct._lv_svg_render_obj, ptr %42, i32 0, i32 1
  %44 = load i32, ptr %43, align 8, !tbaa !36
  %45 = and i32 %44, 16
  %46 = icmp ne i32 %45, 0
  br i1 %46, label %47, label %55

47:                                               ; preds = %41
  %48 = load ptr, ptr %5, align 8, !tbaa !3
  %49 = getelementptr inbounds nuw %struct._lv_vector_draw_dsc_t, ptr %48, i32 0, i32 0
  %50 = getelementptr inbounds nuw %struct._lv_vector_fill_dsc_t, ptr %49, i32 0, i32 3
  %51 = load i32, ptr %50, align 4, !tbaa !264
  %52 = load ptr, ptr %6, align 8, !tbaa !3
  %53 = getelementptr inbounds nuw %struct._lv_vector_draw_dsc_t, ptr %52, i32 0, i32 0
  %54 = getelementptr inbounds nuw %struct._lv_vector_fill_dsc_t, ptr %53, i32 0, i32 3
  store i32 %51, ptr %54, align 4, !tbaa !264
  br label %55

55:                                               ; preds = %47, %41
  %56 = load ptr, ptr %3, align 8, !tbaa !3
  %57 = getelementptr inbounds nuw %struct._lv_svg_render_obj, ptr %56, i32 0, i32 1
  %58 = load i32, ptr %57, align 8, !tbaa !36
  %59 = and i32 %58, 64
  %60 = icmp ne i32 %59, 0
  br i1 %60, label %61, label %94

61:                                               ; preds = %55
  %62 = load ptr, ptr %5, align 8, !tbaa !3
  %63 = getelementptr inbounds nuw %struct._lv_vector_draw_dsc_t, ptr %62, i32 0, i32 1
  %64 = getelementptr inbounds nuw %struct._lv_vector_stroke_dsc_t, ptr %63, i32 0, i32 0
  %65 = load i32, ptr %64, align 8, !tbaa !237
  %66 = load ptr, ptr %6, align 8, !tbaa !3
  %67 = getelementptr inbounds nuw %struct._lv_vector_draw_dsc_t, ptr %66, i32 0, i32 1
  %68 = getelementptr inbounds nuw %struct._lv_vector_stroke_dsc_t, ptr %67, i32 0, i32 0
  store i32 %65, ptr %68, align 8, !tbaa !237
  %69 = load ptr, ptr %6, align 8, !tbaa !3
  %70 = getelementptr inbounds nuw %struct._lv_vector_draw_dsc_t, ptr %69, i32 0, i32 1
  %71 = getelementptr inbounds nuw %struct._lv_vector_stroke_dsc_t, ptr %70, i32 0, i32 1
  %72 = load ptr, ptr %5, align 8, !tbaa !3
  %73 = getelementptr inbounds nuw %struct._lv_vector_draw_dsc_t, ptr %72, i32 0, i32 1
  %74 = getelementptr inbounds nuw %struct._lv_vector_stroke_dsc_t, ptr %73, i32 0, i32 1
  call void @llvm.memcpy.p0.p0.i64(ptr align 4 %71, ptr align 4 %74, i64 4, i1 false), !tbaa.struct !78
  %75 = load ptr, ptr %6, align 8, !tbaa !3
  %76 = getelementptr inbounds nuw %struct._lv_vector_draw_dsc_t, ptr %75, i32 0, i32 1
  %77 = getelementptr inbounds nuw %struct._lv_vector_stroke_dsc_t, ptr %76, i32 0, i32 8
  %78 = load ptr, ptr %5, align 8, !tbaa !3
  %79 = getelementptr inbounds nuw %struct._lv_vector_draw_dsc_t, ptr %78, i32 0, i32 1
  %80 = getelementptr inbounds nuw %struct._lv_vector_stroke_dsc_t, ptr %79, i32 0, i32 8
  %81 = call ptr @lv_memcpy(ptr noundef %77, ptr noundef %80, i64 noundef 48)
  %82 = load ptr, ptr %6, align 8, !tbaa !3
  %83 = getelementptr inbounds nuw %struct._lv_vector_draw_dsc_t, ptr %82, i32 0, i32 1
  %84 = getelementptr inbounds nuw %struct._lv_vector_stroke_dsc_t, ptr %83, i32 0, i32 9
  %85 = load ptr, ptr %5, align 8, !tbaa !3
  %86 = getelementptr inbounds nuw %struct._lv_vector_draw_dsc_t, ptr %85, i32 0, i32 1
  %87 = getelementptr inbounds nuw %struct._lv_vector_stroke_dsc_t, ptr %86, i32 0, i32 9
  %88 = call ptr @lv_memcpy(ptr noundef %84, ptr noundef %87, i64 noundef 36)
  %89 = load ptr, ptr %5, align 8, !tbaa !3
  %90 = getelementptr inbounds nuw %struct._lv_vector_draw_dsc_t, ptr %89, i32 0, i32 3
  %91 = load i32, ptr %90, align 4, !tbaa !88
  %92 = load ptr, ptr %6, align 8, !tbaa !3
  %93 = getelementptr inbounds nuw %struct._lv_vector_draw_dsc_t, ptr %92, i32 0, i32 3
  store i32 %91, ptr %93, align 4, !tbaa !88
  br label %94

94:                                               ; preds = %61, %55
  %95 = load ptr, ptr %3, align 8, !tbaa !3
  %96 = getelementptr inbounds nuw %struct._lv_svg_render_obj, ptr %95, i32 0, i32 1
  %97 = load i32, ptr %96, align 8, !tbaa !36
  %98 = and i32 %97, 128
  %99 = icmp ne i32 %98, 0
  br i1 %99, label %100, label %108

100:                                              ; preds = %94
  %101 = load ptr, ptr %5, align 8, !tbaa !3
  %102 = getelementptr inbounds nuw %struct._lv_vector_draw_dsc_t, ptr %101, i32 0, i32 1
  %103 = getelementptr inbounds nuw %struct._lv_vector_stroke_dsc_t, ptr %102, i32 0, i32 2
  %104 = load i8, ptr %103, align 8, !tbaa !238
  %105 = load ptr, ptr %6, align 8, !tbaa !3
  %106 = getelementptr inbounds nuw %struct._lv_vector_draw_dsc_t, ptr %105, i32 0, i32 1
  %107 = getelementptr inbounds nuw %struct._lv_vector_stroke_dsc_t, ptr %106, i32 0, i32 2
  store i8 %104, ptr %107, align 8, !tbaa !238
  br label %108

108:                                              ; preds = %100, %94
  %109 = load ptr, ptr %3, align 8, !tbaa !3
  %110 = getelementptr inbounds nuw %struct._lv_svg_render_obj, ptr %109, i32 0, i32 1
  %111 = load i32, ptr %110, align 8, !tbaa !36
  %112 = and i32 %111, 256
  %113 = icmp ne i32 %112, 0
  br i1 %113, label %114, label %122

114:                                              ; preds = %108
  %115 = load ptr, ptr %5, align 8, !tbaa !3
  %116 = getelementptr inbounds nuw %struct._lv_vector_draw_dsc_t, ptr %115, i32 0, i32 1
  %117 = getelementptr inbounds nuw %struct._lv_vector_stroke_dsc_t, ptr %116, i32 0, i32 3
  %118 = load float, ptr %117, align 4, !tbaa !265
  %119 = load ptr, ptr %6, align 8, !tbaa !3
  %120 = getelementptr inbounds nuw %struct._lv_vector_draw_dsc_t, ptr %119, i32 0, i32 1
  %121 = getelementptr inbounds nuw %struct._lv_vector_stroke_dsc_t, ptr %120, i32 0, i32 3
  store float %118, ptr %121, align 4, !tbaa !265
  br label %122

122:                                              ; preds = %114, %108
  %123 = load ptr, ptr %3, align 8, !tbaa !3
  %124 = getelementptr inbounds nuw %struct._lv_svg_render_obj, ptr %123, i32 0, i32 1
  %125 = load i32, ptr %124, align 8, !tbaa !36
  %126 = and i32 %125, 512
  %127 = icmp ne i32 %126, 0
  br i1 %127, label %128, label %136

128:                                              ; preds = %122
  %129 = load ptr, ptr %5, align 8, !tbaa !3
  %130 = getelementptr inbounds nuw %struct._lv_vector_draw_dsc_t, ptr %129, i32 0, i32 1
  %131 = getelementptr inbounds nuw %struct._lv_vector_stroke_dsc_t, ptr %130, i32 0, i32 5
  %132 = load i32, ptr %131, align 8, !tbaa !266
  %133 = load ptr, ptr %6, align 8, !tbaa !3
  %134 = getelementptr inbounds nuw %struct._lv_vector_draw_dsc_t, ptr %133, i32 0, i32 1
  %135 = getelementptr inbounds nuw %struct._lv_vector_stroke_dsc_t, ptr %134, i32 0, i32 5
  store i32 %132, ptr %135, align 8, !tbaa !266
  br label %136

136:                                              ; preds = %128, %122
  %137 = load ptr, ptr %3, align 8, !tbaa !3
  %138 = getelementptr inbounds nuw %struct._lv_svg_render_obj, ptr %137, i32 0, i32 1
  %139 = load i32, ptr %138, align 8, !tbaa !36
  %140 = and i32 %139, 1024
  %141 = icmp ne i32 %140, 0
  br i1 %141, label %142, label %150

142:                                              ; preds = %136
  %143 = load ptr, ptr %5, align 8, !tbaa !3
  %144 = getelementptr inbounds nuw %struct._lv_vector_draw_dsc_t, ptr %143, i32 0, i32 1
  %145 = getelementptr inbounds nuw %struct._lv_vector_stroke_dsc_t, ptr %144, i32 0, i32 6
  %146 = load i32, ptr %145, align 4, !tbaa !267
  %147 = load ptr, ptr %6, align 8, !tbaa !3
  %148 = getelementptr inbounds nuw %struct._lv_vector_draw_dsc_t, ptr %147, i32 0, i32 1
  %149 = getelementptr inbounds nuw %struct._lv_vector_stroke_dsc_t, ptr %148, i32 0, i32 6
  store i32 %146, ptr %149, align 4, !tbaa !267
  br label %150

150:                                              ; preds = %142, %136
  %151 = load ptr, ptr %3, align 8, !tbaa !3
  %152 = getelementptr inbounds nuw %struct._lv_svg_render_obj, ptr %151, i32 0, i32 1
  %153 = load i32, ptr %152, align 8, !tbaa !36
  %154 = and i32 %153, 2048
  %155 = icmp ne i32 %154, 0
  br i1 %155, label %156, label %164

156:                                              ; preds = %150
  %157 = load ptr, ptr %5, align 8, !tbaa !3
  %158 = getelementptr inbounds nuw %struct._lv_vector_draw_dsc_t, ptr %157, i32 0, i32 1
  %159 = getelementptr inbounds nuw %struct._lv_vector_stroke_dsc_t, ptr %158, i32 0, i32 7
  %160 = load i16, ptr %159, align 8, !tbaa !268
  %161 = load ptr, ptr %6, align 8, !tbaa !3
  %162 = getelementptr inbounds nuw %struct._lv_vector_draw_dsc_t, ptr %161, i32 0, i32 1
  %163 = getelementptr inbounds nuw %struct._lv_vector_stroke_dsc_t, ptr %162, i32 0, i32 7
  store i16 %160, ptr %163, align 8, !tbaa !268
  br label %164

164:                                              ; preds = %156, %150
  %165 = load ptr, ptr %3, align 8, !tbaa !3
  %166 = getelementptr inbounds nuw %struct._lv_svg_render_obj, ptr %165, i32 0, i32 1
  %167 = load i32, ptr %166, align 8, !tbaa !36
  %168 = and i32 %167, 4096
  %169 = icmp ne i32 %168, 0
  br i1 %169, label %170, label %177

170:                                              ; preds = %164
  %171 = load ptr, ptr %6, align 8, !tbaa !3
  %172 = getelementptr inbounds nuw %struct._lv_vector_draw_dsc_t, ptr %171, i32 0, i32 1
  %173 = getelementptr inbounds nuw %struct._lv_vector_stroke_dsc_t, ptr %172, i32 0, i32 4
  %174 = load ptr, ptr %5, align 8, !tbaa !3
  %175 = getelementptr inbounds nuw %struct._lv_vector_draw_dsc_t, ptr %174, i32 0, i32 1
  %176 = getelementptr inbounds nuw %struct._lv_vector_stroke_dsc_t, ptr %175, i32 0, i32 4
  call void @lv_array_copy(ptr noundef %173, ptr noundef %176)
  br label %177

177:                                              ; preds = %170, %164
  call void @llvm.lifetime.end.p0(i64 8, ptr %6) #8
  call void @llvm.lifetime.end.p0(i64 8, ptr %5) #8
  ret void
}