; Function Attrs: nounwind uwtable
define internal fastcc void @_special_render(ptr noundef %0, ptr noundef %1) unnamed_addr #0 {
  %3 = getelementptr inbounds nuw i8, ptr %0, i64 8
  %4 = load i32, ptr %3, align 8, !tbaa !133
  %5 = and i32 %4, 8
  %.not = icmp eq i32 %5, 0
  br i1 %.not, label %13, label %6

6:                                                ; preds = %2
  %7 = getelementptr inbounds nuw i8, ptr %0, i64 24
  %8 = getelementptr inbounds nuw i8, ptr %1, i64 8
  %9 = tail call ptr @lv_memcpy(ptr noundef nonnull %8, ptr noundef nonnull %7, i64 noundef 248) #9
  %10 = getelementptr inbounds nuw i8, ptr %0, i64 444
  %11 = load i32, ptr %10, align 4, !tbaa !47
  %12 = getelementptr inbounds nuw i8, ptr %1, i64 428
  store i32 %11, ptr %12, align 4, !tbaa !47
  %.pre = load i32, ptr %3, align 8, !tbaa !133
  br label %13

13:                                               ; preds = %6, %2
  %14 = phi i32 [ %.pre, %6 ], [ %4, %2 ]
  %15 = and i32 %14, 32
  %.not42 = icmp eq i32 %15, 0
  br i1 %.not42, label %20, label %16

16:                                               ; preds = %13
  %17 = getelementptr inbounds nuw i8, ptr %0, i64 32
  %18 = load i8, ptr %17, align 8, !tbaa !169
  %19 = getelementptr inbounds nuw i8, ptr %1, i64 16
  store i8 %18, ptr %19, align 8, !tbaa !169
  br label %20

20:                                               ; preds = %16, %13
  %21 = and i32 %14, 16
  %.not43 = icmp eq i32 %21, 0
  br i1 %.not43, label %26, label %22

22:                                               ; preds = %20
  %23 = getelementptr inbounds nuw i8, ptr %0, i64 36
  %24 = load i32, ptr %23, align 4, !tbaa !265
  %25 = getelementptr inbounds nuw i8, ptr %1, i64 20
  store i32 %24, ptr %25, align 4, !tbaa !265
  br label %26

26:                                               ; preds = %22, %20
  %27 = and i32 %14, 64
  %.not44 = icmp eq i32 %27, 0
  br i1 %.not44, label %44, label %28

28:                                               ; preds = %26
  %29 = getelementptr inbounds nuw i8, ptr %0, i64 272
  %30 = load i32, ptr %29, align 8, !tbaa !140
  %31 = getelementptr inbounds nuw i8, ptr %1, i64 256
  store i32 %30, ptr %31, align 8, !tbaa !140
  %32 = getelementptr inbounds nuw i8, ptr %1, i64 260
  %33 = getelementptr inbounds nuw i8, ptr %0, i64 276
  %34 = load i32, ptr %33, align 4
  store i32 %34, ptr %32, align 4
  %35 = getelementptr inbounds nuw i8, ptr %1, i64 308
  %36 = getelementptr inbounds nuw i8, ptr %0, i64 324
  %37 = tail call ptr @lv_memcpy(ptr noundef nonnull %35, ptr noundef nonnull %36, i64 noundef 48) #9
  %38 = getelementptr inbounds nuw i8, ptr %1, i64 356
  %39 = getelementptr inbounds nuw i8, ptr %0, i64 372
  %40 = tail call ptr @lv_memcpy(ptr noundef nonnull %38, ptr noundef nonnull %39, i64 noundef 36) #9
  %41 = getelementptr inbounds nuw i8, ptr %0, i64 444
  %42 = load i32, ptr %41, align 4, !tbaa !47
  %43 = getelementptr inbounds nuw i8, ptr %1, i64 428
  store i32 %42, ptr %43, align 4, !tbaa !47
  %.pre51 = load i32, ptr %3, align 8, !tbaa !133
  br label %44

44:                                               ; preds = %28, %26
  %45 = phi i32 [ %.pre51, %28 ], [ %14, %26 ]
  %46 = and i32 %45, 128
  %.not45 = icmp eq i32 %46, 0
  br i1 %.not45, label %51, label %47

47:                                               ; preds = %44
  %48 = getelementptr inbounds nuw i8, ptr %0, i64 280
  %49 = load i8, ptr %48, align 8, !tbaa !141
  %50 = getelementptr inbounds nuw i8, ptr %1, i64 264
  store i8 %49, ptr %50, align 8, !tbaa !141
  br label %51

51:                                               ; preds = %47, %44
  %52 = and i32 %45, 256
  %.not46 = icmp eq i32 %52, 0
  br i1 %.not46, label %57, label %53

53:                                               ; preds = %51
  %54 = getelementptr inbounds nuw i8, ptr %0, i64 284
  %55 = load float, ptr %54, align 4, !tbaa !142
  %56 = getelementptr inbounds nuw i8, ptr %1, i64 268
  store float %55, ptr %56, align 4, !tbaa !142
  br label %57

57:                                               ; preds = %53, %51
  %58 = and i32 %45, 512
  %.not47 = icmp eq i32 %58, 0
  br i1 %.not47, label %63, label %59

59:                                               ; preds = %57
  %60 = getelementptr inbounds nuw i8, ptr %0, i64 312
  %61 = load i32, ptr %60, align 8, !tbaa !143
  %62 = getelementptr inbounds nuw i8, ptr %1, i64 296
  store i32 %61, ptr %62, align 8, !tbaa !143
  br label %63

63:                                               ; preds = %59, %57
  %64 = and i32 %45, 1024
  %.not48 = icmp eq i32 %64, 0
  br i1 %.not48, label %69, label %65

65:                                               ; preds = %63
  %66 = getelementptr inbounds nuw i8, ptr %0, i64 316
  %67 = load i32, ptr %66, align 4, !tbaa !144
  %68 = getelementptr inbounds nuw i8, ptr %1, i64 300
  store i32 %67, ptr %68, align 4, !tbaa !144
  br label %69

69:                                               ; preds = %65, %63
  %70 = and i32 %45, 2048
  %.not49 = icmp eq i32 %70, 0
  br i1 %.not49, label %75, label %71

71:                                               ; preds = %69
  %72 = getelementptr inbounds nuw i8, ptr %0, i64 320
  %73 = load i16, ptr %72, align 8, !tbaa !145
  %74 = getelementptr inbounds nuw i8, ptr %1, i64 304
  store i16 %73, ptr %74, align 8, !tbaa !145
  br label %75

75:                                               ; preds = %71, %69
  %76 = and i32 %45, 4096
  %.not50 = icmp eq i32 %76, 0
  br i1 %.not50, label %80, label %77

77:                                               ; preds = %75
  %78 = getelementptr inbounds nuw i8, ptr %1, i64 272
  %79 = getelementptr inbounds nuw i8, ptr %0, i64 288
  tail call void @lv_array_copy(ptr noundef nonnull %78, ptr noundef nonnull %79) #9
  br label %80

80:                                               ; preds = %77, %75
  ret void
}